target datalayout = "e-m:e-p270:32:32-p271:32:32-p272:64:64-i64:64-i128:128-f80:128-n8:16:32:64-S128"
target triple = "x86_64-pc-linux-gnu"

@tty_out = internal global ptr null, align 8

; Function Attrs: nounwind uwtable
define internal i32 @write_string(ptr noundef %0, ptr noundef %1) #0 {
  %3 = alloca ptr, align 8
  %4 = alloca ptr, align 8
  store ptr %0, ptr %3, align 8, !tbaa !8
  store ptr %1, ptr %4, align 8, !tbaa !20
  %5 = load ptr, ptr %4, align 8, !tbaa !20
  %6 = call i32 @UI_get_string_type(ptr noundef %5)
  switch i32 %6, label %15 [
    i32 5, label %7
    i32 4, label %7
    i32 0, label %14
    i32 1, label %14
    i32 2, label %14
    i32 3, label %14
  ]

7:                                                ; preds = %2, %2
  %8 = load ptr, ptr %4, align 8, !tbaa !20
  %9 = call ptr @UI_get0_output_string(ptr noundef %8)
  %10 = load ptr, ptr @tty_out, align 8, !tbaa !18
  %11 = call i32 @fputs(ptr noundef %9, ptr noundef %10)
  %12 = load ptr, ptr @tty_out, align 8, !tbaa !18
  %13 = call i32 @fflush(ptr noundef %12)
  br label %15

14:                                               ; preds = %2, %2, %2, %2
  br label %15

15:                                               ; preds = %2, %14, %7
  ret i32 1
}