; Function Attrs: nounwind uwtable
define internal noundef i32 @write_string(ptr readnone captures(none) %0, ptr noundef %1) #3 {
  %3 = tail call i32 @UI_get_string_type(ptr noundef %1) #15
  %4 = and i32 %3, -2
  %switch = icmp eq i32 %4, 4
  br i1 %switch, label %5, label %11

5:                                                ; preds = %2
  %6 = tail call ptr @UI_get0_output_string(ptr noundef %1) #15
  %7 = load ptr, ptr @tty_out, align 8, !tbaa !15
  %8 = tail call i32 @fputs(ptr noundef %6, ptr noundef %7)
  %9 = load ptr, ptr @tty_out, align 8, !tbaa !15
  %10 = tail call i32 @fflush(ptr noundef %9)
  br label %11

11:                                               ; preds = %2, %5
  ret i32 1
}